target datalayout = "e-m:e-p270:32:32-p271:32:32-p272:64:64-i64:64-i128:128-f80:128-n8:16:32:64-S128"
target triple = "x86_64-pc-linux-gnu"

%struct.strmap_entry = type { %struct.hashmap_entry, ptr, ptr }
%struct.hashmap_entry = type { ptr, i32 }
%struct.strmap = type { %struct.hashmap, ptr, i8 }
%struct.hashmap = type { ptr, ptr, ptr, i32, i32, i32, i32, i8 }
%struct.strintmap = type { %struct.strmap, i32 }

; Function Attrs: nounwind uwtable
define dso_local ptr @strmap_put(ptr noundef %0, ptr noundef %1, ptr noundef %2) #0 {
  %4 = alloca ptr, align 8
  %5 = alloca ptr, align 8
  %6 = alloca ptr, align 8
  %7 = alloca ptr, align 8
  %8 = alloca ptr, align 8
  %9 = alloca ptr, align 8
  %10 = alloca i32, align 4
  store ptr %0, ptr %5, align 8, !tbaa !17
  store ptr %1, ptr %6, align 8, !tbaa !29
  store ptr %2, ptr %7, align 8, !tbaa !4
  call void @llvm.lifetime.start.p0(i64 8, ptr %8) #8
  %11 = load ptr, ptr %5, align 8, !tbaa !17
  %12 = load ptr, ptr %6, align 8, !tbaa !29
  %13 = call ptr @find_strmap_entry(ptr noundef %11, ptr noundef %12)
  store ptr %13, ptr %8, align 8, !tbaa !10
  %14 = load ptr, ptr %8, align 8, !tbaa !10
  %15 = icmp ne ptr %14, null
  br i1 %15, label %16, label %24

16:                                               ; preds = %3
  call void @llvm.lifetime.start.p0(i64 8, ptr %9) #8
  %17 = load ptr, ptr %8, align 8, !tbaa !10
  %18 = getelementptr inbounds nuw %struct.strmap_entry, ptr %17, i32 0, i32 2
  %19 = load ptr, ptr %18, align 8, !tbaa !26
  store ptr %19, ptr %9, align 8, !tbaa !4
  %20 = load ptr, ptr %7, align 8, !tbaa !4
  %21 = load ptr, ptr %8, align 8, !tbaa !10
  %22 = getelementptr inbounds nuw %struct.strmap_entry, ptr %21, i32 0, i32 2
  store ptr %20, ptr %22, align 8, !tbaa !26
  %23 = load ptr, ptr %9, align 8, !tbaa !4
  store ptr %23, ptr %4, align 8
  store i32 1, ptr %10, align 4
  call void @llvm.lifetime.end.p0(i64 8, ptr %9) #8
  br label %33

24:                                               ; preds = %3
  %25 = load ptr, ptr %5, align 8, !tbaa !17
  %26 = load ptr, ptr %6, align 8, !tbaa !29
  %27 = load ptr, ptr %7, align 8, !tbaa !4
  %28 = call ptr @create_entry(ptr noundef %25, ptr noundef %26, ptr noundef %27)
  store ptr %28, ptr %8, align 8, !tbaa !10
  %29 = load ptr, ptr %5, align 8, !tbaa !17
  %30 = getelementptr inbounds nuw %struct.strmap, ptr %29, i32 0, i32 0
  %31 = load ptr, ptr %8, align 8, !tbaa !10
  %32 = getelementptr inbounds nuw %struct.strmap_entry, ptr %31, i32 0, i32 0
  call void @hashmap_add(ptr noundef %30, ptr noundef %32)
  store ptr null, ptr %4, align 8
  store i32 1, ptr %10, align 4
  br label %33

33:                                               ; preds = %24, %16
  call void @llvm.lifetime.end.p0(i64 8, ptr %8) #8
  %34 = load ptr, ptr %4, align 8
  ret ptr %34
}

; Function Attrs: inlinehint nounwind uwtable
define internal ptr @container_of_or_null_offset(ptr noundef %0, i64 noundef %1) #5 {
  %3 = alloca ptr, align 8
  %4 = alloca i64, align 8
  store ptr %0, ptr %3, align 8, !tbaa !4
  store i64 %1, ptr %4, align 8, !tbaa !30
  %5 = load ptr, ptr %3, align 8, !tbaa !4
  %6 = icmp ne ptr %5, null
  br i1 %6, label %7, label %12

7:                                                ; preds = %2
  %8 = load ptr, ptr %3, align 8, !tbaa !4
  %9 = load i64, ptr %4, align 8, !tbaa !30
  %10 = sub i64 0, %9
  %11 = getelementptr inbounds i8, ptr %8, i64 %10
  br label %13

12:                                               ; preds = %2
  br label %13

13:                                               ; preds = %12, %7
  %14 = phi ptr [ %11, %7 ], [ null, %12 ]
  ret ptr %14
}

; Function Attrs: inlinehint nounwind uwtable
define internal void @hashmap_entry_init(ptr noundef %0, i32 noundef %1) #5 {
  %3 = alloca ptr, align 8
  %4 = alloca i32, align 4
  store ptr %0, ptr %3, align 8, !tbaa !8
  store i32 %1, ptr %4, align 4, !tbaa !21
  %5 = load i32, ptr %4, align 4, !tbaa !21
  %6 = load ptr, ptr %3, align 8, !tbaa !8
  %7 = getelementptr inbounds nuw %struct.hashmap_entry, ptr %6, i32 0, i32 1
  store i32 %5, ptr %7, align 8, !tbaa !32
  %8 = load ptr, ptr %3, align 8, !tbaa !8
  %9 = getelementptr inbounds nuw %struct.hashmap_entry, ptr %8, i32 0, i32 0
  store ptr null, ptr %9, align 8, !tbaa !33
  ret void
}

; Function Attrs: inlinehint nounwind uwtable
define internal void @strintmap_set(ptr noundef %0, ptr noundef %1, i64 noundef %2) #5 {
  %4 = alloca ptr, align 8
  %5 = alloca ptr, align 8
  %6 = alloca i64, align 8
  store ptr %0, ptr %4, align 8, !tbaa !34
  store ptr %1, ptr %5, align 8, !tbaa !29
  store i64 %2, ptr %6, align 8, !tbaa !30
  %7 = load ptr, ptr %4, align 8, !tbaa !34
  %8 = getelementptr inbounds nuw %struct.strintmap, ptr %7, i32 0, i32 0
  %9 = load ptr, ptr %5, align 8, !tbaa !29
  %10 = load i64, ptr %6, align 8, !tbaa !30
  %11 = inttoptr i64 %10 to ptr
  %12 = call ptr @strmap_put(ptr noundef %8, ptr noundef %9, ptr noundef %11)
  ret void
}

; Function Attrs: nounwind uwtable
define internal ptr @find_strmap_entry(ptr noundef %0, ptr noundef %1) #0 {
  %3 = alloca ptr, align 8
  %4 = alloca ptr, align 8
  %5 = alloca %struct.strmap_entry, align 8
  store ptr %0, ptr %3, align 8, !tbaa !17
  store ptr %1, ptr %4, align 8, !tbaa !29
  call void @llvm.lifetime.start.p0(i64 32, ptr %5) #8
  %6 = getelementptr inbounds nuw %struct.strmap_entry, ptr %5, i32 0, i32 0
  %7 = load ptr, ptr %4, align 8, !tbaa !29
  %8 = call i32 @strhash(ptr noundef %7)
  call void @hashmap_entry_init(ptr noundef %6, i32 noundef %8)
  %9 = load ptr, ptr %4, align 8, !tbaa !29
  %10 = getelementptr inbounds nuw %struct.strmap_entry, ptr %5, i32 0, i32 1
  store ptr %9, ptr %10, align 8, !tbaa !12
  %11 = load ptr, ptr %3, align 8, !tbaa !17
  %12 = getelementptr inbounds nuw %struct.strmap, ptr %11, i32 0, i32 0
  %13 = getelementptr inbounds nuw %struct.strmap_entry, ptr %5, i32 0, i32 0
  %14 = call ptr @hashmap_get(ptr noundef %12, ptr noundef %13, ptr noundef null)
  %15 = call ptr @container_of_or_null_offset(ptr noundef %14, i64 noundef 0)
  call void @llvm.lifetime.end.p0(i64 32, ptr %5) #8
  ret ptr %15
}

; Function Attrs: nounwind uwtable
define dso_local void @strintmap_incr(ptr noundef %0, ptr noundef %1, i64 noundef %2) #0 {
  %4 = alloca ptr, align 8
  %5 = alloca ptr, align 8
  %6 = alloca i64, align 8
  %7 = alloca ptr, align 8
  %8 = alloca ptr, align 8
  store ptr %0, ptr %4, align 8, !tbaa !34
  store ptr %1, ptr %5, align 8, !tbaa !29
  store i64 %2, ptr %6, align 8, !tbaa !30
  call void @llvm.lifetime.start.p0(i64 8, ptr %7) #8
  %9 = load ptr, ptr %4, align 8, !tbaa !34
  %10 = getelementptr inbounds nuw %struct.strintmap, ptr %9, i32 0, i32 0
  %11 = load ptr, ptr %5, align 8, !tbaa !29
  %12 = call ptr @find_strmap_entry(ptr noundef %10, ptr noundef %11)
  store ptr %12, ptr %7, align 8, !tbaa !10
  %13 = load ptr, ptr %7, align 8, !tbaa !10
  %14 = icmp ne ptr %13, null
  br i1 %14, label %15, label %22

15:                                               ; preds = %3
  call void @llvm.lifetime.start.p0(i64 8, ptr %8) #8
  %16 = load ptr, ptr %7, align 8, !tbaa !10
  %17 = getelementptr inbounds nuw %struct.strmap_entry, ptr %16, i32 0, i32 2
  store ptr %17, ptr %8, align 8, !tbaa !36
  %18 = load i64, ptr %6, align 8, !tbaa !30
  %19 = load ptr, ptr %8, align 8, !tbaa !36
  %20 = load i64, ptr %19, align 8, !tbaa !30
  %21 = add nsw i64 %20, %18
  store i64 %21, ptr %19, align 8, !tbaa !30
  call void @llvm.lifetime.end.p0(i64 8, ptr %8) #8
  br label %31

22:                                               ; preds = %3
  %23 = load ptr, ptr %4, align 8, !tbaa !34
  %24 = load ptr, ptr %5, align 8, !tbaa !29
  %25 = load ptr, ptr %4, align 8, !tbaa !34
  %26 = getelementptr inbounds nuw %struct.strintmap, ptr %25, i32 0, i32 1
  %27 = load i32, ptr %26, align 8, !tbaa !38
  %28 = sext i32 %27 to i64
  %29 = load i64, ptr %6, align 8, !tbaa !30
  %30 = add nsw i64 %28, %29
  call void @strintmap_set(ptr noundef %23, ptr noundef %24, i64 noundef %30)
  br label %31

31:                                               ; preds = %22, %15
  call void @llvm.lifetime.end.p0(i64 8, ptr %7) #8
  ret void
}