; Function Attrs: nounwind uwtable
define dso_local void @strintmap_incr(ptr noundef %0, ptr noundef %1, i64 noundef %2) local_unnamed_addr #5 {
  %4 = alloca %struct.strmap_entry, align 8
  %5 = alloca %struct.strmap_entry, align 8
  call void @llvm.lifetime.start.p0(i64 32, ptr nonnull %5) #10
  %6 = tail call i32 @strhash(ptr noundef %1) #10
  %7 = getelementptr inbounds nuw i8, ptr %5, i64 8
  store i32 %6, ptr %7, align 8, !tbaa !21
  store ptr null, ptr %5, align 8, !tbaa !22
  %8 = getelementptr inbounds nuw i8, ptr %5, i64 16
  store ptr %1, ptr %8, align 8, !tbaa !4
  %9 = call ptr @hashmap_get(ptr noundef %0, ptr noundef nonnull %5, ptr noundef null) #10
  call void @llvm.lifetime.end.p0(i64 32, ptr nonnull %5) #10
  %.not = icmp eq ptr %9, null
  br i1 %.not, label %14, label %10

10:                                               ; preds = %3
  %11 = getelementptr inbounds nuw i8, ptr %9, i64 24
  %12 = load i64, ptr %11, align 8, !tbaa !23
  %13 = add nsw i64 %12, %2
  store i64 %13, ptr %11, align 8, !tbaa !23
  br label %strintmap_set.exit

14:                                               ; preds = %3
  %15 = getelementptr inbounds nuw i8, ptr %0, i64 64
  %16 = load i32, ptr %15, align 8, !tbaa !25
  %17 = sext i32 %16 to i64
  %18 = add nsw i64 %2, %17
  %19 = inttoptr i64 %18 to ptr
  call void @llvm.lifetime.start.p0(i64 32, ptr nonnull %4) #10
  %20 = call i32 @strhash(ptr noundef %1) #10
  %21 = getelementptr inbounds nuw i8, ptr %4, i64 8
  store i32 %20, ptr %21, align 8, !tbaa !21
  store ptr null, ptr %4, align 8, !tbaa !22
  %22 = getelementptr inbounds nuw i8, ptr %4, i64 16
  store ptr %1, ptr %22, align 8, !tbaa !4
  %23 = call ptr @hashmap_get(ptr noundef %0, ptr noundef nonnull %4, ptr noundef null) #10
  call void @llvm.lifetime.end.p0(i64 32, ptr nonnull %4) #10
  %.not.i.i = icmp eq ptr %23, null
  br i1 %.not.i.i, label %26, label %24

24:                                               ; preds = %14
  %25 = getelementptr inbounds nuw i8, ptr %23, i64 24
  store ptr %19, ptr %25, align 8, !tbaa !20
  br label %strintmap_set.exit

26:                                               ; preds = %14
  %27 = call fastcc ptr @create_entry(ptr noundef nonnull %0, ptr noundef %1, ptr noundef %19)
  call void @hashmap_add(ptr noundef nonnull %0, ptr noundef %27) #10
  br label %strintmap_set.exit

strintmap_set.exit:                               ; preds = %26, %24, %10
  ret void
}